; Function Attrs: null_pointer_is_valid sspstrong uwtable
define internal range(i32 2, 5) i32 @dissect_iso14443_cmd_type_hlta(ptr noundef %0, ptr noundef %1, ptr noundef %2, ptr noundef %3) #0 {
  %5 = ptrtoint ptr %3 to i64
  %6 = and i64 %5, 4294967295
  %.not = icmp eq i64 %6, 0
  %7 = tail call ptr @proto_tree_get_parent(ptr noundef %2)
  %8 = getelementptr inbounds nuw i8, ptr %1, i64 8
  %9 = load ptr, ptr %8, align 8
  tail call void @col_set_str(ptr noundef %9, i32 noundef 25, ptr noundef nonnull @.str.78)
  tail call void (ptr, ptr, ...) @proto_item_append_text(ptr noundef %7, ptr noundef nonnull @.str.265)
  %10 = load i32, ptr @hf_iso14443_hlta, align 4
  %11 = tail call ptr @proto_tree_add_item(ptr noundef %2, i32 noundef %10, ptr noundef %0, i32 noundef 0, i32 noundef 2, i32 noundef 0)
  br i1 %.not, label %12, label %18

12:                                               ; preds = %4
  %13 = load i32, ptr @hf_iso14443_crc, align 4
  %14 = load i32, ptr @hf_iso14443_crc_status, align 4
  %15 = tail call zeroext i16 @crc16_iso14443a_tvb_offset(ptr noundef %0, i32 noundef 0, i32 noundef 2)
  %16 = zext i16 %15 to i32
  %17 = tail call ptr @proto_tree_add_checksum(ptr noundef %2, ptr noundef %0, i32 noundef 2, i32 noundef %13, i32 noundef %14, ptr noundef nonnull @ei_iso14443_wrong_crc, ptr noundef %1, i32 noundef %16, i32 noundef -2147483648, i32 noundef 1)
  br label %18

18:                                               ; preds = %12, %4
  %.0 = phi i32 [ 2, %4 ], [ 4, %12 ]
  ret i32 %.0
}